; ModuleID = '4/70.c'
source_filename = "4/70.c"
target datalayout = "e-m:e-p270:32:32-p271:32:32-p272:64:64-i64:64-f80:128-n8:16:32:64-S128"
target triple = "x86_64-pc-linux-gnu"

@.str = private unnamed_addr constant [6 x i8] c"%d %d\00", align 1
@.str.1 = private unnamed_addr constant [3 x i8] c"%d\00", align 1
@.str.2 = private unnamed_addr constant [4 x i8] c"%d\0A\00", align 1

; Function Attrs: noinline nounwind uwtable
define dso_local void @main() #0 {
  %1 = alloca i32, align 4
  %2 = alloca i32, align 4
  %3 = alloca i32**, align 8
  %4 = alloca i32, align 4
  %5 = alloca i32, align 4
  %6 = alloca i32, align 4
  %7 = alloca i32, align 4
  %8 = call i32 (i8*, ...) @__isoc99_scanf(i8* getelementptr inbounds ([6 x i8], [6 x i8]* @.str, i64 0, i64 0), i32* %1, i32* %2)
  %9 = call noalias i8* @malloc(i64 800) #3
  %10 = bitcast i8* %9 to i32**
  store i32** %10, i32*** %3, align 8
  store i32 0, i32* %4, align 4
  br label %11

11:                                               ; preds = %22, %0
  %12 = load i32, i32* %4, align 4
  %13 = load i32, i32* %1, align 4
  %14 = icmp slt i32 %12, %13
  br i1 %14, label %15, label %25

15:                                               ; preds = %11
  %16 = call noalias i8* @malloc(i64 400) #3
  %17 = bitcast i8* %16 to i32*
  %18 = load i32**, i32*** %3, align 8
  %19 = load i32, i32* %4, align 4
  %20 = sext i32 %19 to i64
  %21 = getelementptr inbounds i32*, i32** %18, i64 %20
  store i32* %17, i32** %21, align 8
  br label %22

22:                                               ; preds = %15
  %23 = load i32, i32* %4, align 4
  %24 = add nsw i32 %23, 1
  store i32 %24, i32* %4, align 4
  br label %11

25:                                               ; preds = %11
  store i32 0, i32* %4, align 4
  br label %26

26:                                               ; preds = %49, %25
  %27 = load i32, i32* %4, align 4
  %28 = load i32, i32* %1, align 4
  %29 = icmp slt i32 %27, %28
  br i1 %29, label %30, label %52

30:                                               ; preds = %26
  store i32 0, i32* %5, align 4
  br label %31

31:                                               ; preds = %45, %30
  %32 = load i32, i32* %5, align 4
  %33 = load i32, i32* %2, align 4
  %34 = icmp slt i32 %32, %33
  br i1 %34, label %35, label %48

35:                                               ; preds = %31
  %36 = load i32**, i32*** %3, align 8
  %37 = load i32, i32* %4, align 4
  %38 = sext i32 %37 to i64
  %39 = getelementptr inbounds i32*, i32** %36, i64 %38
  %40 = load i32*, i32** %39, align 8
  %41 = load i32, i32* %5, align 4
  %42 = sext i32 %41 to i64
  %43 = getelementptr inbounds i32, i32* %40, i64 %42
  %44 = call i32 (i8*, ...) @__isoc99_scanf(i8* getelementptr inbounds ([3 x i8], [3 x i8]* @.str.1, i64 0, i64 0), i32* %43)
  br label %45

45:                                               ; preds = %35
  %46 = load i32, i32* %5, align 4
  %47 = add nsw i32 %46, 1
  store i32 %47, i32* %5, align 4
  br label %31

48:                                               ; preds = %31
  br label %49

49:                                               ; preds = %48
  %50 = load i32, i32* %4, align 4
  %51 = add nsw i32 %50, 1
  store i32 %51, i32* %4, align 4
  br label %26

52:                                               ; preds = %26
  store i32 0, i32* %5, align 4
  br label %53

53:                                               ; preds = %86, %52
  %54 = load i32, i32* %5, align 4
  %55 = load i32, i32* %2, align 4
  %56 = sub nsw i32 %55, 1
  %57 = icmp slt i32 %54, %56
  br i1 %57, label %58, label %89

58:                                               ; preds = %53
  %59 = load i32, i32* %5, align 4
  store i32 %59, i32* %6, align 4
  store i32 0, i32* %4, align 4
  br label %60

60:                                               ; preds = %82, %58
  %61 = load i32, i32* %6, align 4
  %62 = icmp sge i32 %61, 0
  br i1 %62, label %63, label %67

63:                                               ; preds = %60
  %64 = load i32, i32* %4, align 4
  %65 = load i32, i32* %1, align 4
  %66 = icmp slt i32 %64, %65
  br label %67

67:                                               ; preds = %63, %60
  %68 = phi i1 [ false, %60 ], [ %66, %63 ]
  br i1 %68, label %69, label %85

69:                                               ; preds = %67
  %70 = load i32**, i32*** %3, align 8
  %71 = load i32, i32* %4, align 4
  %72 = sext i32 %71 to i64
  %73 = getelementptr inbounds i32*, i32** %70, i64 %72
  %74 = load i32*, i32** %73, align 8
  %75 = load i32, i32* %6, align 4
  %76 = sext i32 %75 to i64
  %77 = getelementptr inbounds i32, i32* %74, i64 %76
  %78 = load i32, i32* %77, align 4
  %79 = call i32 (i8*, ...) @printf(i8* getelementptr inbounds ([4 x i8], [4 x i8]* @.str.2, i64 0, i64 0), i32 %78)
  %80 = load i32, i32* %6, align 4
  %81 = add nsw i32 %80, -1
  store i32 %81, i32* %6, align 4
  br label %82

82:                                               ; preds = %69
  %83 = load i32, i32* %4, align 4
  %84 = add nsw i32 %83, 1
  store i32 %84, i32* %4, align 4
  br label %60

85:                                               ; preds = %67
  br label %86

86:                                               ; preds = %85
  %87 = load i32, i32* %5, align 4
  %88 = add nsw i32 %87, 1
  store i32 %88, i32* %5, align 4
  br label %53

89:                                               ; preds = %53
  store i32 0, i32* %4, align 4
  br label %90

90:                                               ; preds = %124, %89
  %91 = load i32, i32* %4, align 4
  %92 = load i32, i32* %1, align 4
  %93 = icmp slt i32 %91, %92
  br i1 %93, label %94, label %127

94:                                               ; preds = %90
  %95 = load i32, i32* %4, align 4
  store i32 %95, i32* %7, align 4
  %96 = load i32, i32* %2, align 4
  %97 = sub nsw i32 %96, 1
  store i32 %97, i32* %5, align 4
  br label %98

98:                                               ; preds = %120, %94
  %99 = load i32, i32* %7, align 4
  %100 = load i32, i32* %1, align 4
  %101 = icmp slt i32 %99, %100
  br i1 %101, label %102, label %105

102:                                              ; preds = %98
  %103 = load i32, i32* %5, align 4
  %104 = icmp sge i32 %103, 0
  br label %105

105:                                              ; preds = %102, %98
  %106 = phi i1 [ false, %98 ], [ %104, %102 ]
  br i1 %106, label %107, label %123

107:                                              ; preds = %105
  %108 = load i32**, i32*** %3, align 8
  %109 = load i32, i32* %7, align 4
  %110 = sext i32 %109 to i64
  %111 = getelementptr inbounds i32*, i32** %108, i64 %110
  %112 = load i32*, i32** %111, align 8
  %113 = load i32, i32* %5, align 4
  %114 = sext i32 %113 to i64
  %115 = getelementptr inbounds i32, i32* %112, i64 %114
  %116 = load i32, i32* %115, align 4
  %117 = call i32 (i8*, ...) @printf(i8* getelementptr inbounds ([4 x i8], [4 x i8]* @.str.2, i64 0, i64 0), i32 %116)
  %118 = load i32, i32* %7, align 4
  %119 = add nsw i32 %118, 1
  store i32 %119, i32* %7, align 4
  br label %120

120:                                              ; preds = %107
  %121 = load i32, i32* %5, align 4
  %122 = add nsw i32 %121, -1
  store i32 %122, i32* %5, align 4
  br label %98

123:                                              ; preds = %105
  br label %124

124:                                              ; preds = %123
  %125 = load i32, i32* %4, align 4
  %126 = add nsw i32 %125, 1
  store i32 %126, i32* %4, align 4
  br label %90

127:                                              ; preds = %90
  ret void
}

declare dso_local i32 @__isoc99_scanf(i8*, ...) #1

; Function Attrs: nounwind
declare dso_local noalias i8* @malloc(i64) #2

declare dso_local i32 @printf(i8*, ...) #1


!llvm.module.flags = !{!0}
!llvm.ident = !{!1}

!0 = !{i32 1, !"wchar_size", i32 4}
!1 = !{!"clang version 10.0.0-4ubuntu1 "}
